target datalayout = "e-m:e-p270:32:32-p271:32:32-p272:64:64-i64:64-i128:128-f80:128-n8:16:32:64-S128"
target triple = "x86_64-pc-linux-gnu"

%struct.FLAC__StreamMetadata = type { i32, i32, i32, %union.anon }
%union.anon = type { %struct.FLAC__StreamMetadata_CueSheet }
%struct.FLAC__StreamMetadata_CueSheet = type { [129 x i8], i64, i32, i32, ptr }
%struct.FLAC__StreamMetadata_SeekTable = type { i32, ptr }
%struct.FLAC__StreamMetadata_SeekPoint = type { i64, i64, i32 }

; Function Attrs: nounwind sspstrong uwtable
define i32 @FLAC__metadata_object_seektable_delete_point(ptr noundef %0, i32 noundef %1) #0 {
  %3 = alloca ptr, align 8
  %4 = alloca i32, align 4
  %5 = alloca i32, align 4
  store ptr %0, ptr %3, align 8, !tbaa !7
  store i32 %1, ptr %4, align 4, !tbaa !3
  call void @llvm.lifetime.start.p0(i64 4, ptr %5) #12
  %6 = load i32, ptr %4, align 4, !tbaa !3
  store i32 %6, ptr %5, align 4, !tbaa !3
  br label %7

7:                                                ; preds = %31, %2
  %8 = load i32, ptr %5, align 4, !tbaa !3
  %9 = load ptr, ptr %3, align 8, !tbaa !7
  %10 = getelementptr inbounds nuw %struct.FLAC__StreamMetadata, ptr %9, i32 0, i32 3
  %11 = getelementptr inbounds nuw %struct.FLAC__StreamMetadata_SeekTable, ptr %10, i32 0, i32 0
  %12 = load i32, ptr %11, align 8, !tbaa !16
  %13 = sub i32 %12, 1
  %14 = icmp ult i32 %8, %13
  br i1 %14, label %15, label %34

15:                                               ; preds = %7
  %16 = load ptr, ptr %3, align 8, !tbaa !7
  %17 = getelementptr inbounds nuw %struct.FLAC__StreamMetadata, ptr %16, i32 0, i32 3
  %18 = getelementptr inbounds nuw %struct.FLAC__StreamMetadata_SeekTable, ptr %17, i32 0, i32 1
  %19 = load ptr, ptr %18, align 8, !tbaa !16
  %20 = load i32, ptr %5, align 4, !tbaa !3
  %21 = zext i32 %20 to i64
  %22 = getelementptr inbounds nuw %struct.FLAC__StreamMetadata_SeekPoint, ptr %19, i64 %21
  %23 = load ptr, ptr %3, align 8, !tbaa !7
  %24 = getelementptr inbounds nuw %struct.FLAC__StreamMetadata, ptr %23, i32 0, i32 3
  %25 = getelementptr inbounds nuw %struct.FLAC__StreamMetadata_SeekTable, ptr %24, i32 0, i32 1
  %26 = load ptr, ptr %25, align 8, !tbaa !16
  %27 = load i32, ptr %5, align 4, !tbaa !3
  %28 = add i32 %27, 1
  %29 = zext i32 %28 to i64
  %30 = getelementptr inbounds nuw %struct.FLAC__StreamMetadata_SeekPoint, ptr %26, i64 %29
  call void @llvm.memcpy.p0.p0.i64(ptr align 8 %22, ptr align 8 %30, i64 24, i1 false), !tbaa.struct !86
  br label %31

31:                                               ; preds = %15
  %32 = load i32, ptr %5, align 4, !tbaa !3
  %33 = add i32 %32, 1
  store i32 %33, ptr %5, align 4, !tbaa !3
  br label %7, !llvm.loop !88

34:                                               ; preds = %7
  %35 = load ptr, ptr %3, align 8, !tbaa !7
  %36 = load ptr, ptr %3, align 8, !tbaa !7
  %37 = getelementptr inbounds nuw %struct.FLAC__StreamMetadata, ptr %36, i32 0, i32 3
  %38 = getelementptr inbounds nuw %struct.FLAC__StreamMetadata_SeekTable, ptr %37, i32 0, i32 0
  %39 = load i32, ptr %38, align 8, !tbaa !16
  %40 = sub i32 %39, 1
  %41 = call i32 @FLAC__metadata_object_seektable_resize_points(ptr noundef %35, i32 noundef %40)
  call void @llvm.lifetime.end.p0(i64 4, ptr %5) #12
  ret i32 %41
}