; Function Attrs: nounwind sspstrong uwtable
define range(i32 0, 2) i32 @FLAC__metadata_object_seektable_delete_point(ptr noundef captures(none) %0, i32 noundef %1) local_unnamed_addr #5 {
  %3 = getelementptr inbounds nuw i8, ptr %0, i64 16
  %4 = load i32, ptr %3, align 8, !tbaa !13
  %5 = add i32 %4, -1
  %6 = icmp ult i32 %1, %5
  br i1 %6, label %.lr.ph, label %._crit_edge

.lr.ph:                                           ; preds = %2
  %7 = getelementptr inbounds nuw i8, ptr %0, i64 24
  %8 = zext i32 %1 to i64
  br label %9

9:                                                ; preds = %.lr.ph, %9
  %indvars.iv = phi i64 [ %8, %.lr.ph ], [ %indvars.iv.next, %9 ]
  %10 = load ptr, ptr %7, align 8, !tbaa !13
  %11 = getelementptr inbounds nuw %struct.FLAC__StreamMetadata_SeekPoint, ptr %10, i64 %indvars.iv
  %indvars.iv.next = add nuw nsw i64 %indvars.iv, 1
  %12 = getelementptr inbounds nuw %struct.FLAC__StreamMetadata_SeekPoint, ptr %10, i64 %indvars.iv.next
  tail call void @llvm.memcpy.p0.p0.i64(ptr noundef nonnull align 8 dereferenceable(24) %11, ptr noundef nonnull align 8 dereferenceable(24) %12, i64 24, i1 false), !tbaa.struct !79
  %13 = load i32, ptr %3, align 8, !tbaa !13
  %14 = add i32 %13, -1
  %15 = zext i32 %14 to i64
  %16 = icmp samesign ult i64 %indvars.iv.next, %15
  br i1 %16, label %9, label %._crit_edge, !llvm.loop !81

._crit_edge:                                      ; preds = %9, %2
  %.lcssa = phi i32 [ %5, %2 ], [ %14, %9 ]
  %17 = tail call i32 @FLAC__metadata_object_seektable_resize_points(ptr noundef nonnull %0, i32 noundef %.lcssa)
  ret i32 %17
}